; Function Attrs: mustprogress noreturn uwtable
define hidden void @_Z13replay_z3_logPKc(ptr noundef %0) local_unnamed_addr #3 personality ptr @__gxx_personality_v0 {
  %2 = alloca %"class.std::basic_ifstream", align 8
  %.not = icmp eq ptr %0, null
  br i1 %.not, label %3, label %4

3:                                                ; preds = %1
  tail call fastcc void @_ZL5solvePKcRSi(ptr noundef nonnull align 8 dereferenceable(16) @_ZSt3cin)
  br label %22

4:                                                ; preds = %1
  call void @llvm.lifetime.start.p0(i64 520, ptr nonnull %2) #14
  call void @_ZNSt14basic_ifstreamIcSt11char_traitsIcEEC1EPKcSt13_Ios_Openmode(ptr noundef nonnull align 8 dereferenceable(256) %2, ptr noundef nonnull %0, i32 noundef 8)
  %5 = load ptr, ptr %2, align 8, !tbaa !4
  %6 = getelementptr i8, ptr %5, i64 -24
  %7 = load i64, ptr %6, align 8
  %8 = getelementptr inbounds i8, ptr %2, i64 %7
  %9 = getelementptr inbounds nuw i8, ptr %8, i64 32
  %10 = load i32, ptr %9, align 8, !tbaa !7
  %11 = and i32 %10, 5
  %or.cond.not = icmp eq i32 %11, 0
  br i1 %or.cond.not, label %20, label %12

12:                                               ; preds = %4
  %13 = invoke noundef nonnull align 8 dereferenceable(8) ptr @_ZSt16__ostream_insertIcSt11char_traitsIcEERSt13basic_ostreamIT_T0_ES6_PKS3_l(ptr noundef nonnull align 8 dereferenceable(8) @_ZSt4cerr, ptr noundef nonnull @.str, i64 noundef 28)
          to label %_ZStlsISt11char_traitsIcEERSt13basic_ostreamIcT_ES5_PKc.exit unwind label %18

_ZStlsISt11char_traitsIcEERSt13basic_ostreamIcT_ES5_PKc.exit: ; preds = %12
  %14 = call noundef i64 @strlen(ptr noundef nonnull dereferenceable(1) %0) #14
  %15 = invoke noundef nonnull align 8 dereferenceable(8) ptr @_ZSt16__ostream_insertIcSt11char_traitsIcEERSt13basic_ostreamIT_T0_ES6_PKS3_l(ptr noundef nonnull align 8 dereferenceable(8) @_ZSt4cerr, ptr noundef nonnull %0, i64 noundef %14)
          to label %_ZStlsISt11char_traitsIcEERSt13basic_ostreamIcT_ES5_PKc.exit7 unwind label %18

_ZStlsISt11char_traitsIcEERSt13basic_ostreamIcT_ES5_PKc.exit7: ; preds = %_ZStlsISt11char_traitsIcEERSt13basic_ostreamIcT_ES5_PKc.exit
  %16 = invoke noundef nonnull align 8 dereferenceable(8) ptr @_ZStlsISt11char_traitsIcEERSt13basic_ostreamIcT_ES5_PKc(ptr noundef nonnull align 8 dereferenceable(8) @_ZSt4cerr, ptr noundef nonnull @.str.1)
          to label %17 unwind label %18

17:                                               ; preds = %_ZStlsISt11char_traitsIcEERSt13basic_ostreamIcT_ES5_PKc.exit7
  call void @exit(i32 noundef 108) #15
  unreachable

18:                                               ; preds = %_ZStlsISt11char_traitsIcEERSt13basic_ostreamIcT_ES5_PKc.exit, %12, %20, %_ZStlsISt11char_traitsIcEERSt13basic_ostreamIcT_ES5_PKc.exit7
  %19 = landingpad { ptr, i32 }
          cleanup
  call void @_ZNSt14basic_ifstreamIcSt11char_traitsIcEED1Ev(ptr noundef nonnull align 8 dereferenceable(256) %2) #14
  call void @llvm.lifetime.end.p0(i64 520, ptr nonnull %2) #14
  resume { ptr, i32 } %19

20:                                               ; preds = %4
  invoke fastcc void @_ZL5solvePKcRSi(ptr noundef nonnull align 8 dereferenceable(16) %2)
          to label %21 unwind label %18

21:                                               ; preds = %20
  call void @_ZNSt14basic_ifstreamIcSt11char_traitsIcEED1Ev(ptr noundef nonnull align 8 dereferenceable(256) %2) #14
  call void @llvm.lifetime.end.p0(i64 520, ptr nonnull %2) #14
  br label %22

22:                                               ; preds = %21, %3
  call void @exit(i32 noundef 0) #16
  unreachable
}